target datalayout = "e-m:e-p270:32:32-p271:32:32-p272:64:64-i64:64-i128:128-f80:128-n8:16:32:64-S128"
target triple = "x86_64-pc-linux-gnu"

%struct.child_process = type { %struct.strvec, %struct.strvec, i32, i32, i64, ptr, ptr, i32, i32, i32, ptr, i16, ptr }
%struct.strvec = type { ptr, i64, i64 }

@old_fd1 = internal global i32 -1, align 4
@old_fd2 = internal global i32 -1, align 4
@pager_process = internal global %struct.child_process zeroinitializer, align 8

; Function Attrs: nounwind uwtable
define internal void @close_pager_fds() #0 {
  %1 = call i32 @close(i32 noundef 1)
  %2 = load i32, ptr @old_fd2, align 4, !tbaa !4
  %3 = icmp ne i32 %2, -1
  br i1 %3, label %4, label %6

4:                                                ; preds = %0
  %5 = call i32 @close(i32 noundef 2)
  br label %6

6:                                                ; preds = %4, %0
  ret void
}

; Function Attrs: nounwind uwtable
define internal void @wait_for_pager_signal(i32 noundef %0) #0 {
  %2 = alloca i32, align 4
  store i32 %0, ptr %2, align 4, !tbaa !4
  %3 = load i32, ptr @old_fd1, align 4, !tbaa !4
  %4 = icmp eq i32 %3, -1
  br i1 %4, label %5, label %6

5:                                                ; preds = %1
  br label %12

6:                                                ; preds = %1
  call void @close_pager_fds()
  %7 = call i32 @finish_command_in_signal(ptr noundef @pager_process)
  %8 = load i32, ptr %2, align 4, !tbaa !4
  %9 = call i32 @sigchain_pop(i32 noundef %8)
  %10 = load i32, ptr %2, align 4, !tbaa !4
  %11 = call i32 @raise(i32 noundef %10) #8
  br label %12

12:                                               ; preds = %6, %5
  ret void
}