; Function Attrs: nounwind uwtable
define internal void @wait_for_pager_signal(i32 noundef %0) #0 {
  %2 = load i32, ptr @old_fd1, align 4, !tbaa !4
  %3 = icmp eq i32 %2, -1
  br i1 %3, label %12, label %4

4:                                                ; preds = %1
  %5 = tail call i32 @close(i32 noundef 1) #12
  %6 = load i32, ptr @old_fd2, align 4, !tbaa !4
  %.not.i = icmp eq i32 %6, -1
  br i1 %.not.i, label %close_pager_fds.exit, label %7

7:                                                ; preds = %4
  %8 = tail call i32 @close(i32 noundef 2) #12
  br label %close_pager_fds.exit

close_pager_fds.exit:                             ; preds = %4, %7
  %9 = tail call i32 @finish_command_in_signal(ptr noundef nonnull @pager_process) #12
  %10 = tail call i32 @sigchain_pop(i32 noundef %0) #12
  %11 = tail call i32 @raise(i32 noundef %0) #12
  br label %12

12:                                               ; preds = %1, %close_pager_fds.exit
  ret void
}